target datalayout = "e-m:e-p270:32:32-p271:32:32-p272:64:64-i64:64-i128:128-f80:128-n8:16:32:64-S128"
target triple = "x86_64-pc-linux-gnu"

%struct._zend_array = type { %struct._zend_refcounted_h, %union.anon.0, i32, %union.anon.1, i32, i32, i32, i32, i64, ptr }
%struct._zend_refcounted_h = type { i32, %union.anon }
%union.anon = type { i32 }
%union.anon.0 = type { i32 }
%union.anon.1 = type { ptr }
%struct._zval_struct = type { %union._zend_value, %union.anon.3, %union.anon.6 }
%union._zend_value = type { i64 }
%union.anon.3 = type { i32 }
%union.anon.6 = type { i32 }
%struct._Bucket = type { %struct._zval_struct, i64, ptr }

; Function Attrs: nounwind uwtable
define void @zend_hash_internal_pointer_end_ex(ptr noundef %0, ptr noundef %1) #0 {
  %3 = alloca ptr, align 8
  %4 = alloca ptr, align 8
  %5 = alloca ptr, align 8
  %6 = alloca ptr, align 8
  %7 = alloca i32, align 4
  store ptr %0, ptr %5, align 8
  store ptr %1, ptr %6, align 8
  %8 = load ptr, ptr %5, align 8
  %9 = getelementptr inbounds %struct._zend_array, ptr %8, i32 0, i32 4
  %10 = load i32, ptr %9, align 8
  store i32 %10, ptr %7, align 4
  %11 = load ptr, ptr %5, align 8
  %12 = getelementptr inbounds %struct._zend_array, ptr %11, i32 0, i32 1
  %13 = load i32, ptr %12, align 8
  %14 = and i32 %13, 4
  %15 = icmp ne i32 %14, 0
  br i1 %15, label %16, label %39

16:                                               ; preds = %2
  br label %17

17:                                               ; preds = %37, %16
  %18 = load i32, ptr %7, align 4
  %19 = icmp ugt i32 %18, 0
  br i1 %19, label %20, label %38

20:                                               ; preds = %17
  %21 = load i32, ptr %7, align 4
  %22 = add i32 %21, -1
  store i32 %22, ptr %7, align 4
  %23 = load ptr, ptr %5, align 8
  %24 = getelementptr inbounds %struct._zend_array, ptr %23, i32 0, i32 3
  %25 = load ptr, ptr %24, align 8
  %26 = load i32, ptr %7, align 4
  %27 = zext i32 %26 to i64
  %28 = getelementptr inbounds %struct._zval_struct, ptr %25, i64 %27
  store ptr %28, ptr %3, align 8
  %29 = load ptr, ptr %3, align 8
  %30 = getelementptr inbounds %struct._zval_struct, ptr %29, i32 0, i32 1
  %31 = load i8, ptr %30, align 8
  %32 = zext i8 %31 to i32
  %33 = icmp ne i32 %32, 0
  br i1 %33, label %34, label %37

34:                                               ; preds = %20
  %35 = load i32, ptr %7, align 4
  %36 = load ptr, ptr %6, align 8
  store i32 %35, ptr %36, align 4
  br label %68

37:                                               ; preds = %20
  br label %17

38:                                               ; preds = %17
  br label %63

39:                                               ; preds = %2
  br label %40

40:                                               ; preds = %61, %39
  %41 = load i32, ptr %7, align 4
  %42 = icmp ugt i32 %41, 0
  br i1 %42, label %43, label %62

43:                                               ; preds = %40
  %44 = load i32, ptr %7, align 4
  %45 = add i32 %44, -1
  store i32 %45, ptr %7, align 4
  %46 = load ptr, ptr %5, align 8
  %47 = getelementptr inbounds %struct._zend_array, ptr %46, i32 0, i32 3
  %48 = load ptr, ptr %47, align 8
  %49 = load i32, ptr %7, align 4
  %50 = zext i32 %49 to i64
  %51 = getelementptr inbounds %struct._Bucket, ptr %48, i64 %50
  %52 = getelementptr inbounds %struct._Bucket, ptr %51, i32 0, i32 0
  store ptr %52, ptr %4, align 8
  %53 = load ptr, ptr %4, align 8
  %54 = getelementptr inbounds %struct._zval_struct, ptr %53, i32 0, i32 1
  %55 = load i8, ptr %54, align 8
  %56 = zext i8 %55 to i32
  %57 = icmp ne i32 %56, 0
  br i1 %57, label %58, label %61

58:                                               ; preds = %43
  %59 = load i32, ptr %7, align 4
  %60 = load ptr, ptr %6, align 8
  store i32 %59, ptr %60, align 4
  br label %68

61:                                               ; preds = %43
  br label %40

62:                                               ; preds = %40
  br label %63

63:                                               ; preds = %62, %38
  %64 = load ptr, ptr %5, align 8
  %65 = getelementptr inbounds %struct._zend_array, ptr %64, i32 0, i32 4
  %66 = load i32, ptr %65, align 8
  %67 = load ptr, ptr %6, align 8
  store i32 %66, ptr %67, align 4
  br label %68

68:                                               ; preds = %63, %58, %34
  ret void
}