; Function Attrs: nofree norecurse nosync nounwind memory(read, argmem: readwrite, inaccessiblemem: none) uwtable
define void @zend_hash_internal_pointer_end_ex(ptr nocapture noundef readonly %0, ptr nocapture noundef writeonly %1) local_unnamed_addr #19 {
  %3 = getelementptr inbounds i8, ptr %0, i64 24
  %4 = load i32, ptr %3, align 8
  %5 = getelementptr inbounds i8, ptr %0, i64 8
  %6 = load i32, ptr %5, align 8
  %7 = and i32 %6, 4
  %.not = icmp eq i32 %7, 0
  %8 = getelementptr inbounds i8, ptr %0, i64 16
  %9 = zext i32 %4 to i64
  br i1 %.not, label %.preheader, label %.preheader21

.preheader21:                                     ; preds = %2, %10
  %indvars.iv = phi i64 [ %11, %10 ], [ %9, %2 ]
  %.not19 = icmp eq i64 %indvars.iv, 0
  br i1 %.not19, label %.loopexit, label %10

10:                                               ; preds = %.preheader21
  %11 = add nsw i64 %indvars.iv, -1
  %12 = load ptr, ptr %8, align 8
  %13 = getelementptr inbounds %struct._zval_struct, ptr %12, i64 %11, i32 1
  %14 = load i8, ptr %13, align 8
  %.not20 = icmp eq i8 %14, 0
  br i1 %.not20, label %.preheader21, label %15

15:                                               ; preds = %10
  %16 = trunc i64 %11 to i32
  br label %.loopexit

.preheader:                                       ; preds = %2, %17
  %indvars.iv27 = phi i64 [ %18, %17 ], [ %9, %2 ]
  %.not17 = icmp eq i64 %indvars.iv27, 0
  br i1 %.not17, label %.loopexit, label %17

17:                                               ; preds = %.preheader
  %18 = add nsw i64 %indvars.iv27, -1
  %19 = load ptr, ptr %8, align 8
  %20 = getelementptr inbounds %struct._Bucket, ptr %19, i64 %18, i32 0, i32 1
  %21 = load i8, ptr %20, align 8
  %.not18 = icmp eq i8 %21, 0
  br i1 %.not18, label %.preheader, label %22

22:                                               ; preds = %17
  %23 = trunc i64 %18 to i32
  br label %.loopexit

.loopexit:                                        ; preds = %.preheader21, %.preheader, %22, %15
  %.sink = phi i32 [ %23, %22 ], [ %16, %15 ], [ %4, %.preheader ], [ %4, %.preheader21 ]
  store i32 %.sink, ptr %1, align 4
  ret void
}